; Function Attrs: mustprogress uwtable
define noundef ptr @_ZN6icu_778Collator15registerFactoryEPNS_15CollatorFactoryER10UErrorCode(ptr noundef %0, ptr noundef nonnull align 4 dereferenceable(4) %1) local_unnamed_addr #5 align 2 personality ptr @__gxx_personality_v0 {
  %3 = load i32, ptr %1, align 4, !tbaa !6
  %4 = icmp sgt i32 %3, 0
  br i1 %4, label %28, label %5

5:                                                ; preds = %2
  %6 = tail call noundef ptr @_ZN6icu_777UMemorynwEm(i64 noundef 96) #16
  %7 = icmp eq ptr %6, null
  br i1 %7, label %.thread19, label %8

8:                                                ; preds = %5
  invoke void @_ZN6icu_778CFactoryC2EPNS_15CollatorFactoryER10UErrorCode(ptr noundef nonnull align 8 dereferenceable(96) %6, ptr noundef %0, ptr noundef nonnull align 4 dereferenceable(4) %1)
          to label %9 unwind label %20

9:                                                ; preds = %8
  %10 = load atomic i32, ptr @_ZL16gServiceInitOnce acquire, align 4
  %11 = icmp eq i32 %10, 2
  br i1 %11, label %22, label %12

12:                                               ; preds = %9
  %13 = tail call noundef signext i8 @_ZN6icu_7720umtx_initImplPreInitERNS_9UInitOnceE(ptr noundef nonnull align 4 dereferenceable(8) @_ZL16gServiceInitOnce)
  %.not.i.i = icmp eq i8 %13, 0
  br i1 %.not.i.i, label %22, label %14

14:                                               ; preds = %12
  %15 = tail call noundef ptr @_ZN6icu_777UMemorynwEm(i64 noundef 408) #16
  %16 = icmp eq ptr %15, null
  br i1 %16, label %_ZN6icu_77L11initServiceEv.exit.i, label %17

17:                                               ; preds = %14
  invoke void @_ZN6icu_7718ICUCollatorServiceC2Ev(ptr noundef nonnull align 8 dereferenceable(408) %15)
          to label %_ZN6icu_77L11initServiceEv.exit.i unwind label %18

common.resume:                                    ; preds = %20, %18
  %.sink = phi ptr [ %6, %20 ], [ %15, %18 ]
  %common.resume.op = phi { ptr, i32 } [ %21, %20 ], [ %19, %18 ]
  tail call void @_ZN6icu_777UMemorydlEPv(ptr noundef nonnull %.sink) #16
  resume { ptr, i32 } %common.resume.op

18:                                               ; preds = %17
  %19 = landingpad { ptr, i32 }
          cleanup
  br label %common.resume

_ZN6icu_77L11initServiceEv.exit.i:                ; preds = %17, %14
  store ptr %15, ptr @_ZL8gService, align 8, !tbaa !15
  tail call void @ucln_i18n_registerCleanup_77(i32 noundef 28, ptr noundef nonnull @_ZL16collator_cleanupv)
  tail call void @_ZN6icu_7721umtx_initImplPostInitERNS_9UInitOnceE(ptr noundef nonnull align 4 dereferenceable(8) @_ZL16gServiceInitOnce)
  br label %22

20:                                               ; preds = %8
  %21 = landingpad { ptr, i32 }
          cleanup
  br label %common.resume

.thread19:                                        ; preds = %5
  store i32 7, ptr %1, align 4, !tbaa !6
  br label %28

22:                                               ; preds = %_ZN6icu_77L11initServiceEv.exit.i, %12, %9
  %23 = load ptr, ptr @_ZL8gService, align 8, !tbaa !15
  %24 = load ptr, ptr %23, align 8, !tbaa !3
  %25 = getelementptr inbounds nuw i8, ptr %24, i64 72
  %26 = load ptr, ptr %25, align 8
  %27 = tail call noundef ptr %26(ptr noundef nonnull align 8 dereferenceable(120) %23, ptr noundef nonnull %6, ptr noundef nonnull align 4 dereferenceable(4) %1)
  br label %28

28:                                               ; preds = %2, %.thread19, %22
  %.1 = phi ptr [ %27, %22 ], [ null, %.thread19 ], [ null, %2 ]
  ret ptr %.1
}